(lp0
S'/Users/lkreidberg/Desktop/Data/WASP33_HST15109/idge01onq_ima.fits'
p1
aS'/Users/lkreidberg/Desktop/Data/WASP33_HST15109/idge01ooq_ima.fits'
p2
aS'/Users/lkreidberg/Desktop/Data/WASP33_HST15109/idge01opq_ima.fits'
p3
aS'/Users/lkreidberg/Desktop/Data/WASP33_HST15109/idge01orq_ima.fits'
p4
aS'/Users/lkreidberg/Desktop/Data/WASP33_HST15109/idge01osq_ima.fits'
p5
aS'/Users/lkreidberg/Desktop/Data/WASP33_HST15109/idge01ouq_ima.fits'
p6
aS'/Users/lkreidberg/Desktop/Data/WASP33_HST15109/idge01ovq_ima.fits'
p7
aS'/Users/lkreidberg/Desktop/Data/WASP33_HST15109/idge01owq_ima.fits'
p8
aS'/Users/lkreidberg/Desktop/Data/WASP33_HST15109/idge01oyq_ima.fits'
p9
aS'/Users/lkreidberg/Desktop/Data/WASP33_HST15109/idge01ozq_ima.fits'
p10
aS'/Users/lkreidberg/Desktop/Data/WASP33_HST15109/idge01p1q_ima.fits'
p11
aS'/Users/lkreidberg/Desktop/Data/WASP33_HST15109/idge01p2q_ima.fits'
p12
aS'/Users/lkreidberg/Desktop/Data/WASP33_HST15109/idge01p5q_ima.fits'
p13
aS'/Users/lkreidberg/Desktop/Data/WASP33_HST15109/idge01p6q_ima.fits'
p14
aS'/Users/lkreidberg/Desktop/Data/WASP33_HST15109/idge01p8q_ima.fits'
p15
aS'/Users/lkreidberg/Desktop/Data/WASP33_HST15109/idge01p9q_ima.fits'
p16
aS'/Users/lkreidberg/Desktop/Data/WASP33_HST15109/idge01paq_ima.fits'
p17
aS'/Users/lkreidberg/Desktop/Data/WASP33_HST15109/idge01pcq_ima.fits'
p18
aS'/Users/lkreidberg/Desktop/Data/WASP33_HST15109/idge01pdq_ima.fits'
p19
aS'/Users/lkreidberg/Desktop/Data/WASP33_HST15109/idge01pfq_ima.fits'
p20
aS'/Users/lkreidberg/Desktop/Data/WASP33_HST15109/idge01pgq_ima.fits'
p21
aS'/Users/lkreidberg/Desktop/Data/WASP33_HST15109/idge01phq_ima.fits'
p22
aS'/Users/lkreidberg/Desktop/Data/WASP33_HST15109/idge01pjq_ima.fits'
p23
aS'/Users/lkreidberg/Desktop/Data/WASP33_HST15109/idge01pkq_ima.fits'
p24
aS'/Users/lkreidberg/Desktop/Data/WASP33_HST15109/idge01pmq_ima.fits'
p25
aS'/Users/lkreidberg/Desktop/Data/WASP33_HST15109/idge01poq_ima.fits'
p26
aS'/Users/lkreidberg/Desktop/Data/WASP33_HST15109/idge01pqq_ima.fits'
p27
aS'/Users/lkreidberg/Desktop/Data/WASP33_HST15109/idge01prq_ima.fits'
p28
aS'/Users/lkreidberg/Desktop/Data/WASP33_HST15109/idge01psq_ima.fits'
p29
aS'/Users/lkreidberg/Desktop/Data/WASP33_HST15109/idge01puq_ima.fits'
p30
aS'/Users/lkreidberg/Desktop/Data/WASP33_HST15109/idge01pvq_ima.fits'
p31
aS'/Users/lkreidberg/Desktop/Data/WASP33_HST15109/idge01pxq_ima.fits'
p32
aS'/Users/lkreidberg/Desktop/Data/WASP33_HST15109/idge01pyq_ima.fits'
p33
aS'/Users/lkreidberg/Desktop/Data/WASP33_HST15109/idge01pzq_ima.fits'
p34
aS'/Users/lkreidberg/Desktop/Data/WASP33_HST15109/idge01q1q_ima.fits'
p35
aS'/Users/lkreidberg/Desktop/Data/WASP33_HST15109/idge01q2q_ima.fits'
p36
aS'/Users/lkreidberg/Desktop/Data/WASP33_HST15109/idge01q4q_ima.fits'
p37
aS'/Users/lkreidberg/Desktop/Data/WASP33_HST15109/idge01q5q_ima.fits'
p38
aS'/Users/lkreidberg/Desktop/Data/WASP33_HST15109/idge01q8q_ima.fits'
p39
aS'/Users/lkreidberg/Desktop/Data/WASP33_HST15109/idge01q9q_ima.fits'
p40
aS'/Users/lkreidberg/Desktop/Data/WASP33_HST15109/idge01qbq_ima.fits'
p41
aS'/Users/lkreidberg/Desktop/Data/WASP33_HST15109/idge01qcq_ima.fits'
p42
aS'/Users/lkreidberg/Desktop/Data/WASP33_HST15109/idge01qdq_ima.fits'
p43
aS'/Users/lkreidberg/Desktop/Data/WASP33_HST15109/idge01qfq_ima.fits'
p44
aS'/Users/lkreidberg/Desktop/Data/WASP33_HST15109/idge01qgq_ima.fits'
p45
aS'/Users/lkreidberg/Desktop/Data/WASP33_HST15109/idge01qiq_ima.fits'
p46
aS'/Users/lkreidberg/Desktop/Data/WASP33_HST15109/idge01qjq_ima.fits'
p47
aS'/Users/lkreidberg/Desktop/Data/WASP33_HST15109/idge01qkq_ima.fits'
p48
aS'/Users/lkreidberg/Desktop/Data/WASP33_HST15109/idge01qmq_ima.fits'
p49
aS'/Users/lkreidberg/Desktop/Data/WASP33_HST15109/idge01qnq_ima.fits'
p50
aS'/Users/lkreidberg/Desktop/Data/WASP33_HST15109/idge01qpq_ima.fits'
p51
aS'/Users/lkreidberg/Desktop/Data/WASP33_HST15109/idge01qrq_ima.fits'
p52
aS'/Users/lkreidberg/Desktop/Data/WASP33_HST15109/idge01qsq_ima.fits'
p53
aS'/Users/lkreidberg/Desktop/Data/WASP33_HST15109/idge01qtq_ima.fits'
p54
aS'/Users/lkreidberg/Desktop/Data/WASP33_HST15109/idge01quq_ima.fits'
p55
aS'/Users/lkreidberg/Desktop/Data/WASP33_HST15109/idge01qvq_ima.fits'
p56
aS'/Users/lkreidberg/Desktop/Data/WASP33_HST15109/idge01qwq_ima.fits'
p57
aS'/Users/lkreidberg/Desktop/Data/WASP33_HST15109/idge01qxq_ima.fits'
p58
aS'/Users/lkreidberg/Desktop/Data/WASP33_HST15109/idge01qyq_ima.fits'
p59
aS'/Users/lkreidberg/Desktop/Data/WASP33_HST15109/idge01qzq_ima.fits'
p60
aS'/Users/lkreidberg/Desktop/Data/WASP33_HST15109/idge01r0q_ima.fits'
p61
aS'/Users/lkreidberg/Desktop/Data/WASP33_HST15109/idge01r1q_ima.fits'
p62
aS'/Users/lkreidberg/Desktop/Data/WASP33_HST15109/idge01r2q_ima.fits'
p63
aS'/Users/lkreidberg/Desktop/Data/WASP33_HST15109/idge01r3q_ima.fits'
p64
a.